target datalayout = "e-m:e-p270:32:32-p271:32:32-p272:64:64-i64:64-i128:128-f80:128-n8:16:32:64-S128"
target triple = "x86_64-pc-linux-gnu"

@.str.10 = private unnamed_addr constant [19 x i8] c"avcC %d too short\0A\00", align 1
@.str.11 = private unnamed_addr constant [34 x i8] c"Decoding sps %d from avcC failed\0A\00", align 1
@.str.12 = private unnamed_addr constant [34 x i8] c"Decoding pps %d from avcC failed\0A\00", align 1

; Function Attrs: alwaysinline nounwind willreturn memory(none) uwtable
define internal zeroext i16 @av_bswap16(i16 noundef zeroext %0) #4 {
  %2 = alloca i16, align 2
  store i16 %0, ptr %2, align 2, !tbaa !71
  %3 = load i16, ptr %2, align 2, !tbaa !71
  %4 = zext i16 %3 to i32
  %5 = ashr i32 %4, 8
  %6 = load i16, ptr %2, align 2, !tbaa !71
  %7 = zext i16 %6 to i32
  %8 = shl i32 %7, 8
  %9 = or i32 %5, %8
  %10 = trunc i32 %9 to i16
  store i16 %10, ptr %2, align 2, !tbaa !71
  %11 = load i16, ptr %2, align 2, !tbaa !71
  ret i16 %11
}

; Function Attrs: nounwind uwtable
define i32 @ff_h264_decode_extradata(ptr noundef %0, i32 noundef %1, ptr noundef %2, ptr noundef %3, ptr noundef %4, i32 noundef %5, ptr noundef %6) #0 {
  %8 = alloca i32, align 4
  %9 = alloca ptr, align 8
  %10 = alloca i32, align 4
  %11 = alloca ptr, align 8
  %12 = alloca ptr, align 8
  %13 = alloca ptr, align 8
  %14 = alloca i32, align 4
  %15 = alloca ptr, align 8
  %16 = alloca i32, align 4
  %17 = alloca i32, align 4
  %18 = alloca i32, align 4
  %19 = alloca i32, align 4
  %20 = alloca i32, align 4
  %21 = alloca ptr, align 8
  store ptr %0, ptr %9, align 8, !tbaa !41
  store i32 %1, ptr %10, align 4, !tbaa !13
  store ptr %2, ptr %11, align 8, !tbaa !67
  store ptr %3, ptr %12, align 8, !tbaa !11
  store ptr %4, ptr %13, align 8, !tbaa !11
  store i32 %5, ptr %14, align 4, !tbaa !13
  store ptr %6, ptr %15, align 8, !tbaa !17
  call void @llvm.lifetime.start.p0(i64 4, ptr %16) #9
  %22 = load ptr, ptr %9, align 8, !tbaa !41
  %23 = icmp ne ptr %22, null
  br i1 %23, label %24, label %27

24:                                               ; preds = %7
  %25 = load i32, ptr %10, align 4, !tbaa !13
  %26 = icmp sle i32 %25, 0
  br i1 %26, label %27, label %28

27:                                               ; preds = %24, %7
  store i32 -22, ptr %8, align 4
  store i32 1, ptr %17, align 4
  br label %166

28:                                               ; preds = %24
  %29 = load ptr, ptr %9, align 8, !tbaa !41
  %30 = getelementptr inbounds i8, ptr %29, i64 0
  %31 = load i8, ptr %30, align 1, !tbaa !40
  %32 = zext i8 %31 to i32
  %33 = icmp eq i32 %32, 1
  br i1 %33, label %34, label %152

34:                                               ; preds = %28
  call void @llvm.lifetime.start.p0(i64 4, ptr %18) #9
  call void @llvm.lifetime.start.p0(i64 4, ptr %19) #9
  call void @llvm.lifetime.start.p0(i64 4, ptr %20) #9
  call void @llvm.lifetime.start.p0(i64 8, ptr %21) #9
  %35 = load ptr, ptr %9, align 8, !tbaa !41
  store ptr %35, ptr %21, align 8, !tbaa !41
  %36 = load ptr, ptr %12, align 8, !tbaa !11
  store i32 1, ptr %36, align 4, !tbaa !13
  %37 = load i32, ptr %10, align 4, !tbaa !13
  %38 = icmp slt i32 %37, 7
  br i1 %38, label %39, label %42

39:                                               ; preds = %34
  %40 = load ptr, ptr %15, align 8, !tbaa !17
  %41 = load i32, ptr %10, align 4, !tbaa !13
  call void (ptr, i32, ptr, ...) @av_log(ptr noundef %40, i32 noundef 16, ptr noundef @.str.10, i32 noundef %41)
  store i32 -1094995529, ptr %8, align 4
  store i32 1, ptr %17, align 4
  br label %149

42:                                               ; preds = %34
  %43 = load ptr, ptr %21, align 8, !tbaa !41
  %44 = getelementptr inbounds i8, ptr %43, i64 5
  %45 = load i8, ptr %44, align 1, !tbaa !40
  %46 = zext i8 %45 to i32
  %47 = and i32 %46, 31
  store i32 %47, ptr %19, align 4, !tbaa !13
  %48 = load ptr, ptr %21, align 8, !tbaa !41
  %49 = getelementptr inbounds i8, ptr %48, i64 6
  store ptr %49, ptr %21, align 8, !tbaa !41
  store i32 0, ptr %18, align 4, !tbaa !13
  br label %50

50:                                               ; preds = %90, %42
  %51 = load i32, ptr %18, align 4, !tbaa !13
  %52 = load i32, ptr %19, align 4, !tbaa !13
  %53 = icmp slt i32 %51, %52
  br i1 %53, label %54, label %93

54:                                               ; preds = %50
  %55 = load ptr, ptr %21, align 8, !tbaa !41
  %56 = load i16, ptr %55, align 1, !tbaa !40
  %57 = call zeroext i16 @av_bswap16(i16 noundef zeroext %56) #10
  %58 = zext i16 %57 to i32
  %59 = add nsw i32 %58, 2
  store i32 %59, ptr %20, align 4, !tbaa !13
  %60 = load i32, ptr %20, align 4, !tbaa !13
  %61 = sext i32 %60 to i64
  %62 = load i32, ptr %10, align 4, !tbaa !13
  %63 = sext i32 %62 to i64
  %64 = load ptr, ptr %21, align 8, !tbaa !41
  %65 = load ptr, ptr %9, align 8, !tbaa !41
  %66 = ptrtoint ptr %64 to i64
  %67 = ptrtoint ptr %65 to i64
  %68 = sub i64 %66, %67
  %69 = sub nsw i64 %63, %68
  %70 = icmp sgt i64 %61, %69
  br i1 %70, label %71, label %72

71:                                               ; preds = %54
  store i32 -1094995529, ptr %8, align 4
  store i32 1, ptr %17, align 4
  br label %149

72:                                               ; preds = %54
  %73 = load ptr, ptr %21, align 8, !tbaa !41
  %74 = load i32, ptr %20, align 4, !tbaa !13
  %75 = load ptr, ptr %11, align 8, !tbaa !67
  %76 = load i32, ptr %14, align 4, !tbaa !13
  %77 = load ptr, ptr %15, align 8, !tbaa !17
  %78 = call i32 @decode_extradata_ps_mp4(ptr noundef %73, i32 noundef %74, ptr noundef %75, i32 noundef %76, ptr noundef %77)
  store i32 %78, ptr %16, align 4, !tbaa !13
  %79 = load i32, ptr %16, align 4, !tbaa !13
  %80 = icmp slt i32 %79, 0
  br i1 %80, label %81, label %85

81:                                               ; preds = %72
  %82 = load ptr, ptr %15, align 8, !tbaa !17
  %83 = load i32, ptr %18, align 4, !tbaa !13
  call void (ptr, i32, ptr, ...) @av_log(ptr noundef %82, i32 noundef 16, ptr noundef @.str.11, i32 noundef %83)
  %84 = load i32, ptr %16, align 4, !tbaa !13
  store i32 %84, ptr %8, align 4
  store i32 1, ptr %17, align 4
  br label %149

85:                                               ; preds = %72
  %86 = load i32, ptr %20, align 4, !tbaa !13
  %87 = load ptr, ptr %21, align 8, !tbaa !41
  %88 = sext i32 %86 to i64
  %89 = getelementptr inbounds i8, ptr %87, i64 %88
  store ptr %89, ptr %21, align 8, !tbaa !41
  br label %90

90:                                               ; preds = %85
  %91 = load i32, ptr %18, align 4, !tbaa !13
  %92 = add nsw i32 %91, 1
  store i32 %92, ptr %18, align 4, !tbaa !13
  br label %50, !llvm.loop !69

93:                                               ; preds = %50
  %94 = load ptr, ptr %21, align 8, !tbaa !41
  %95 = getelementptr inbounds nuw i8, ptr %94, i32 1
  store ptr %95, ptr %21, align 8, !tbaa !41
  %96 = load i8, ptr %94, align 1, !tbaa !40
  %97 = zext i8 %96 to i32
  store i32 %97, ptr %19, align 4, !tbaa !13
  store i32 0, ptr %18, align 4, !tbaa !13
  br label %98

98:                                               ; preds = %138, %93
  %99 = load i32, ptr %18, align 4, !tbaa !13
  %100 = load i32, ptr %19, align 4, !tbaa !13
  %101 = icmp slt i32 %99, %100
  br i1 %101, label %102, label %141

102:                                              ; preds = %98
  %103 = load ptr, ptr %21, align 8, !tbaa !41
  %104 = load i16, ptr %103, align 1, !tbaa !40
  %105 = call zeroext i16 @av_bswap16(i16 noundef zeroext %104) #10
  %106 = zext i16 %105 to i32
  %107 = add nsw i32 %106, 2
  store i32 %107, ptr %20, align 4, !tbaa !13
  %108 = load i32, ptr %20, align 4, !tbaa !13
  %109 = sext i32 %108 to i64
  %110 = load i32, ptr %10, align 4, !tbaa !13
  %111 = sext i32 %110 to i64
  %112 = load ptr, ptr %21, align 8, !tbaa !41
  %113 = load ptr, ptr %9, align 8, !tbaa !41
  %114 = ptrtoint ptr %112 to i64
  %115 = ptrtoint ptr %113 to i64
  %116 = sub i64 %114, %115
  %117 = sub nsw i64 %111, %116
  %118 = icmp sgt i64 %109, %117
  br i1 %118, label %119, label %120

119:                                              ; preds = %102
  store i32 -1094995529, ptr %8, align 4
  store i32 1, ptr %17, align 4
  br label %149

120:                                              ; preds = %102
  %121 = load ptr, ptr %21, align 8, !tbaa !41
  %122 = load i32, ptr %20, align 4, !tbaa !13
  %123 = load ptr, ptr %11, align 8, !tbaa !67
  %124 = load i32, ptr %14, align 4, !tbaa !13
  %125 = load ptr, ptr %15, align 8, !tbaa !17
  %126 = call i32 @decode_extradata_ps_mp4(ptr noundef %121, i32 noundef %122, ptr noundef %123, i32 noundef %124, ptr noundef %125)
  store i32 %126, ptr %16, align 4, !tbaa !13
  %127 = load i32, ptr %16, align 4, !tbaa !13
  %128 = icmp slt i32 %127, 0
  br i1 %128, label %129, label %133

129:                                              ; preds = %120
  %130 = load ptr, ptr %15, align 8, !tbaa !17
  %131 = load i32, ptr %18, align 4, !tbaa !13
  call void (ptr, i32, ptr, ...) @av_log(ptr noundef %130, i32 noundef 16, ptr noundef @.str.12, i32 noundef %131)
  %132 = load i32, ptr %16, align 4, !tbaa !13
  store i32 %132, ptr %8, align 4
  store i32 1, ptr %17, align 4
  br label %149

133:                                              ; preds = %120
  %134 = load i32, ptr %20, align 4, !tbaa !13
  %135 = load ptr, ptr %21, align 8, !tbaa !41
  %136 = sext i32 %134 to i64
  %137 = getelementptr inbounds i8, ptr %135, i64 %136
  store ptr %137, ptr %21, align 8, !tbaa !41
  br label %138

138:                                              ; preds = %133
  %139 = load i32, ptr %18, align 4, !tbaa !13
  %140 = add nsw i32 %139, 1
  store i32 %140, ptr %18, align 4, !tbaa !13
  br label %98, !llvm.loop !70

141:                                              ; preds = %98
  %142 = load ptr, ptr %9, align 8, !tbaa !41
  %143 = getelementptr inbounds i8, ptr %142, i64 4
  %144 = load i8, ptr %143, align 1, !tbaa !40
  %145 = zext i8 %144 to i32
  %146 = and i32 %145, 3
  %147 = add nsw i32 %146, 1
  %148 = load ptr, ptr %13, align 8, !tbaa !11
  store i32 %147, ptr %148, align 4, !tbaa !13
  store i32 0, ptr %17, align 4
  br label %149

149:                                              ; preds = %141, %129, %119, %81, %71, %39
  call void @llvm.lifetime.end.p0(i64 8, ptr %21) #9
  call void @llvm.lifetime.end.p0(i64 4, ptr %20) #9
  call void @llvm.lifetime.end.p0(i64 4, ptr %19) #9
  call void @llvm.lifetime.end.p0(i64 4, ptr %18) #9
  %150 = load i32, ptr %17, align 4
  switch i32 %150, label %166 [
    i32 0, label %151
  ]

151:                                              ; preds = %149
  br label %164

152:                                              ; preds = %28
  %153 = load ptr, ptr %12, align 8, !tbaa !11
  store i32 0, ptr %153, align 4, !tbaa !13
  %154 = load ptr, ptr %9, align 8, !tbaa !41
  %155 = load i32, ptr %10, align 4, !tbaa !13
  %156 = load ptr, ptr %11, align 8, !tbaa !67
  %157 = load ptr, ptr %15, align 8, !tbaa !17
  %158 = call i32 @decode_extradata_ps(ptr noundef %154, i32 noundef %155, ptr noundef %156, i32 noundef 0, ptr noundef %157)
  store i32 %158, ptr %16, align 4, !tbaa !13
  %159 = load i32, ptr %16, align 4, !tbaa !13
  %160 = icmp slt i32 %159, 0
  br i1 %160, label %161, label %163

161:                                              ; preds = %152
  %162 = load i32, ptr %16, align 4, !tbaa !13
  store i32 %162, ptr %8, align 4
  store i32 1, ptr %17, align 4
  br label %166

163:                                              ; preds = %152
  br label %164

164:                                              ; preds = %163, %151
  %165 = load i32, ptr %10, align 4, !tbaa !13
  store i32 %165, ptr %8, align 4
  store i32 1, ptr %17, align 4
  br label %166

166:                                              ; preds = %164, %161, %149, %27
  call void @llvm.lifetime.end.p0(i64 4, ptr %16) #9
  %167 = load i32, ptr %8, align 4
  ret i32 %167
}