; Function Attrs: nounwind uwtable
define i32 @ff_h264_decode_extradata(ptr noundef %0, i32 noundef %1, ptr noundef %2, ptr noundef writeonly captures(none) %3, ptr noundef writeonly captures(none) %4, i32 noundef %5, ptr noundef %6) local_unnamed_addr #0 {
  %8 = icmp eq ptr %0, null
  %9 = icmp slt i32 %1, 1
  %or.cond = or i1 %8, %9
  br i1 %or.cond, label %.thread, label %10

10:                                               ; preds = %7
  %11 = load i8, ptr %0, align 1, !tbaa !16
  %12 = icmp eq i8 %11, 1
  br i1 %12, label %13, label %65

13:                                               ; preds = %10
  store i32 1, ptr %3, align 4, !tbaa !25
  %14 = icmp samesign ult i32 %1, 7
  br i1 %14, label %15, label %16

15:                                               ; preds = %13
  tail call void (ptr, i32, ptr, ...) @av_log(ptr noundef %6, i32 noundef 16, ptr noundef nonnull @.str.10, i32 noundef %1) #8
  br label %.thread

16:                                               ; preds = %13
  %17 = getelementptr inbounds nuw i8, ptr %0, i64 5
  %18 = load i8, ptr %17, align 1, !tbaa !16
  %19 = and i8 %18, 31
  %20 = zext nneg i8 %19 to i32
  %21 = getelementptr inbounds nuw i8, ptr %0, i64 6
  %.not = icmp eq i8 %19, 0
  br i1 %.not, label %._crit_edge, label %.lr.ph

.lr.ph:                                           ; preds = %16
  %22 = zext nneg i32 %1 to i64
  %23 = ptrtoint ptr %0 to i64
  %.neg73 = add i64 %22, %23
  br label %24

24:                                               ; preds = %.lr.ph, %37
  %.087 = phi ptr [ %21, %.lr.ph ], [ %38, %37 ]
  %.06186 = phi i32 [ 0, %.lr.ph ], [ %39, %37 ]
  %25 = load i16, ptr %.087, align 1, !tbaa !16
  %26 = tail call i16 @llvm.bswap.i16(i16 %25)
  %27 = zext i16 %26 to i32
  %28 = add nuw nsw i32 %27, 2
  %29 = zext nneg i32 %28 to i64
  %30 = ptrtoint ptr %.087 to i64
  %31 = sub i64 %.neg73, %30
  %32 = icmp slt i64 %31, %29
  br i1 %32, label %.thread, label %33

33:                                               ; preds = %24
  %34 = tail call fastcc i32 @decode_extradata_ps_mp4(ptr noundef %.087, i32 noundef %28, ptr noundef %2, i32 noundef %5, ptr noundef %6)
  %35 = icmp slt i32 %34, 0
  br i1 %35, label %36, label %37

36:                                               ; preds = %33
  tail call void (ptr, i32, ptr, ...) @av_log(ptr noundef %6, i32 noundef 16, ptr noundef nonnull @.str.11, i32 noundef %.06186) #8
  br label %.thread

37:                                               ; preds = %33
  %38 = getelementptr inbounds nuw i8, ptr %.087, i64 %29
  %39 = add nuw nsw i32 %.06186, 1
  %exitcond.not = icmp eq i32 %39, %20
  br i1 %exitcond.not, label %._crit_edge, label %24, !llvm.loop !51

._crit_edge:                                      ; preds = %37, %16
  %.0.lcssa = phi ptr [ %21, %16 ], [ %38, %37 ]
  %40 = load i8, ptr %.0.lcssa, align 1, !tbaa !16
  %41 = zext i8 %40 to i32
  %.not93 = icmp eq i8 %40, 0
  br i1 %.not93, label %._crit_edge92, label %.lr.ph91

.lr.ph91:                                         ; preds = %._crit_edge
  %42 = getelementptr inbounds nuw i8, ptr %.0.lcssa, i64 1
  %43 = zext nneg i32 %1 to i64
  %44 = ptrtoint ptr %0 to i64
  %.neg = add i64 %43, %44
  br label %45

45:                                               ; preds = %.lr.ph91, %58
  %.189 = phi ptr [ %42, %.lr.ph91 ], [ %59, %58 ]
  %.16288 = phi i32 [ 0, %.lr.ph91 ], [ %60, %58 ]
  %46 = load i16, ptr %.189, align 1, !tbaa !16
  %47 = tail call i16 @llvm.bswap.i16(i16 %46)
  %48 = zext i16 %47 to i32
  %49 = add nuw nsw i32 %48, 2
  %50 = zext nneg i32 %49 to i64
  %51 = ptrtoint ptr %.189 to i64
  %52 = sub i64 %.neg, %51
  %53 = icmp slt i64 %52, %50
  br i1 %53, label %.thread, label %54

54:                                               ; preds = %45
  %55 = tail call fastcc i32 @decode_extradata_ps_mp4(ptr noundef %.189, i32 noundef %49, ptr noundef %2, i32 noundef %5, ptr noundef %6)
  %56 = icmp slt i32 %55, 0
  br i1 %56, label %57, label %58

57:                                               ; preds = %54
  tail call void (ptr, i32, ptr, ...) @av_log(ptr noundef %6, i32 noundef 16, ptr noundef nonnull @.str.12, i32 noundef %.16288) #8
  br label %.thread

58:                                               ; preds = %54
  %59 = getelementptr inbounds nuw i8, ptr %.189, i64 %50
  %60 = add nuw nsw i32 %.16288, 1
  %exitcond103.not = icmp eq i32 %60, %41
  br i1 %exitcond103.not, label %._crit_edge92, label %45, !llvm.loop !52

._crit_edge92:                                    ; preds = %58, %._crit_edge
  %61 = getelementptr inbounds nuw i8, ptr %0, i64 4
  %62 = load i8, ptr %61, align 1, !tbaa !16
  %63 = and i8 %62, 3
  %narrow = add nuw nsw i8 %63, 1
  %64 = zext nneg i8 %narrow to i32
  store i32 %64, ptr %4, align 4, !tbaa !25
  br label %68

65:                                               ; preds = %10
  store i32 0, ptr %3, align 4, !tbaa !25
  %66 = tail call fastcc i32 @decode_extradata_ps(ptr noundef nonnull %0, i32 noundef %1, ptr noundef %2, i32 noundef 0, ptr noundef %6)
  %67 = icmp slt i32 %66, 0
  br i1 %67, label %.thread, label %68

68:                                               ; preds = %._crit_edge92, %65
  br label %.thread

.thread:                                          ; preds = %24, %45, %57, %36, %15, %65, %7, %68
  %.064 = phi i32 [ %1, %68 ], [ -22, %7 ], [ %66, %65 ], [ %55, %57 ], [ %34, %36 ], [ -1094995529, %15 ], [ -1094995529, %45 ], [ -1094995529, %24 ]
  ret i32 %.064
}